; Function Attrs: mustprogress nofree norecurse nosync nounwind willreturn memory(argmem: readwrite) uwtable
define internal void @_ZL23hb_draw_extents_line_toP15hb_draw_funcs_tPvP15hb_draw_state_tffS1_(ptr nocapture readnone %0, ptr nocapture noundef %1, ptr nocapture readnone %2, float noundef %3, float noundef %4, ptr nocapture readnone %5) #2 {
  %7 = load float, ptr %1, align 4
  %8 = getelementptr inbounds i8, ptr %1, i64 8
  %9 = load float, ptr %8, align 4
  %10 = fcmp ogt float %7, %9
  br i1 %10, label %11, label %14

11:                                               ; preds = %6
  store float %3, ptr %8, align 4
  store float %3, ptr %1, align 4
  %12 = getelementptr inbounds i8, ptr %1, i64 12
  store float %4, ptr %12, align 4
  %13 = getelementptr inbounds i8, ptr %1, i64 4
  store float %4, ptr %13, align 4
  br label %_ZN12hb_extents_t9add_pointEff.exit

14:                                               ; preds = %6
  %15 = fcmp ole float %7, %3
  %.sroa.speculated12.i = select i1 %15, float %7, float %3
  store float %.sroa.speculated12.i, ptr %1, align 4
  %16 = getelementptr inbounds i8, ptr %1, i64 4
  %17 = load float, ptr %16, align 4
  %18 = fcmp ole float %17, %4
  %.sroa.speculated5.i = select i1 %18, float %17, float %4
  store float %.sroa.speculated5.i, ptr %16, align 4
  %19 = fcmp oge float %9, %3
  %.sroa.speculated9.i = select i1 %19, float %9, float %3
  store float %.sroa.speculated9.i, ptr %8, align 4
  %20 = getelementptr inbounds i8, ptr %1, i64 12
  %21 = load float, ptr %20, align 4
  %22 = fcmp oge float %21, %4
  %.sroa.speculated.i = select i1 %22, float %21, float %4
  store float %.sroa.speculated.i, ptr %20, align 4
  br label %_ZN12hb_extents_t9add_pointEff.exit

_ZN12hb_extents_t9add_pointEff.exit:              ; preds = %11, %14
  ret void
}